target datalayout = "e-m:e-p270:32:32-p271:32:32-p272:64:64-i64:64-i128:128-f80:128-n8:16:32:64-S128"
target triple = "x86_64-pc-linux-gnu"

%"struct.cmPolicies::PolicyMap" = type { %"class.std::bitset.148" }
%"class.std::bitset.148" = type { %"struct.std::_Base_bitset.149" }
%"struct.std::_Base_bitset.149" = type { [9 x i64] }

; Function Attrs: mustprogress nounwind uwtable
define linkonce_odr dso_local noundef i64 @_ZNSt12_Base_bitsetILm9EE11_S_whichbitEm(i64 noundef %0) #6 comdat align 2 {
  %2 = alloca i64, align 8
  store i64 %0, ptr %2, align 8, !tbaa !17
  %3 = load i64, ptr %2, align 8, !tbaa !17
  %4 = urem i64 %3, 64
  ret i64 %4
}

; Function Attrs: mustprogress nounwind uwtable
define linkonce_odr dso_local noundef i64 @_ZNSt12_Base_bitsetILm9EE12_S_whichwordEm(i64 noundef %0) #6 comdat align 2 {
  %2 = alloca i64, align 8
  store i64 %0, ptr %2, align 8, !tbaa !17
  %3 = load i64, ptr %2, align 8, !tbaa !17
  %4 = udiv i64 %3, 64
  ret i64 %4
}

; Function Attrs: mustprogress nounwind uwtable
define linkonce_odr dso_local noundef i64 @_ZNSt12_Base_bitsetILm9EE10_S_maskbitEm(i64 noundef %0) #6 comdat align 2 {
  %2 = alloca i64, align 8
  store i64 %0, ptr %2, align 8, !tbaa !17
  %3 = load i64, ptr %2, align 8, !tbaa !17
  %4 = call noundef i64 @_ZNSt12_Base_bitsetILm9EE11_S_whichbitEm(i64 noundef %3) #3
  %5 = shl i64 1, %4
  ret i64 %5
}

; Function Attrs: mustprogress nounwind uwtable
define linkonce_odr dso_local noundef i64 @_ZNKSt12_Base_bitsetILm9EE10_M_getwordEm(ptr noundef nonnull align 8 dereferenceable(72) %0, i64 noundef %1) #6 comdat align 2 {
  %3 = alloca ptr, align 8
  %4 = alloca i64, align 8
  store ptr %0, ptr %3, align 8, !tbaa !177
  store i64 %1, ptr %4, align 8, !tbaa !17
  %5 = load ptr, ptr %3, align 8
  %6 = getelementptr inbounds nuw %"struct.std::_Base_bitset.149", ptr %5, i32 0, i32 0
  %7 = load i64, ptr %4, align 8, !tbaa !17
  %8 = call noundef i64 @_ZNSt12_Base_bitsetILm9EE12_S_whichwordEm(i64 noundef %7) #3
  %9 = getelementptr inbounds nuw [9 x i64], ptr %6, i64 0, i64 %8
  %10 = load i64, ptr %9, align 8, !tbaa !17
  ret i64 %10
}

; Function Attrs: mustprogress nounwind uwtable
define linkonce_odr dso_local noundef zeroext i1 @_ZNKSt6bitsetILm558EE15_Unchecked_testEm(ptr noundef nonnull align 8 dereferenceable(72) %0, i64 noundef %1) #6 comdat align 2 {
  %3 = alloca ptr, align 8
  %4 = alloca i64, align 8
  store ptr %0, ptr %3, align 8, !tbaa !54
  store i64 %1, ptr %4, align 8, !tbaa !17
  %5 = load ptr, ptr %3, align 8
  %6 = load i64, ptr %4, align 8, !tbaa !17
  %7 = call noundef i64 @_ZNKSt12_Base_bitsetILm9EE10_M_getwordEm(ptr noundef nonnull align 8 dereferenceable(72) %5, i64 noundef %6) #3
  %8 = load i64, ptr %4, align 8, !tbaa !17
  %9 = call noundef i64 @_ZNSt12_Base_bitsetILm9EE10_S_maskbitEm(i64 noundef %8) #3
  %10 = and i64 %7, %9
  %11 = icmp ne i64 %10, 0
  ret i1 %11
}

; Function Attrs: mustprogress nounwind uwtable
define linkonce_odr dso_local noundef zeroext i1 @_ZNKSt6bitsetILm558EEixEm(ptr noundef nonnull align 8 dereferenceable(72) %0, i64 noundef %1) #6 comdat align 2 {
  %3 = alloca ptr, align 8
  %4 = alloca i64, align 8
  store ptr %0, ptr %3, align 8, !tbaa !54
  store i64 %1, ptr %4, align 8, !tbaa !17
  %5 = load ptr, ptr %3, align 8
  %6 = load i64, ptr %4, align 8, !tbaa !17
  %7 = call noundef zeroext i1 @_ZNKSt6bitsetILm558EE15_Unchecked_testEm(ptr noundef nonnull align 8 dereferenceable(72) %5, i64 noundef %6) #3
  ret i1 %7
}

; Function Attrs: mustprogress uwtable
define dso_local noundef i32 @_ZNK10cmPolicies9PolicyMap3GetENS_8PolicyIDE(ptr noundef nonnull align 8 dereferenceable(72) %0, i32 noundef %1) #5 align 2 {
  %3 = alloca ptr, align 8
  %4 = alloca i32, align 4
  %5 = alloca i32, align 4
  store ptr %0, ptr %3, align 8, !tbaa !52
  store i32 %1, ptr %4, align 4, !tbaa !34
  %6 = load ptr, ptr %3, align 8
  call void @llvm.lifetime.start.p0(i64 4, ptr %5) #3
  store i32 1, ptr %5, align 4, !tbaa !36
  %7 = getelementptr inbounds nuw %"struct.cmPolicies::PolicyMap", ptr %6, i32 0, i32 0
  %8 = load i32, ptr %4, align 4, !tbaa !34
  %9 = mul nsw i32 3, %8
  %10 = add nsw i32 %9, 0
  %11 = sext i32 %10 to i64
  %12 = call noundef zeroext i1 @_ZNKSt6bitsetILm558EEixEm(ptr noundef nonnull align 8 dereferenceable(72) %7, i64 noundef %11)
  br i1 %12, label %13, label %14

13:                                               ; preds = %2
  store i32 0, ptr %5, align 4, !tbaa !36
  br label %23

14:                                               ; preds = %2
  %15 = getelementptr inbounds nuw %"struct.cmPolicies::PolicyMap", ptr %6, i32 0, i32 0
  %16 = load i32, ptr %4, align 4, !tbaa !34
  %17 = mul nsw i32 3, %16
  %18 = add nsw i32 %17, 2
  %19 = sext i32 %18 to i64
  %20 = call noundef zeroext i1 @_ZNKSt6bitsetILm558EEixEm(ptr noundef nonnull align 8 dereferenceable(72) %15, i64 noundef %19)
  br i1 %20, label %21, label %22

21:                                               ; preds = %14
  store i32 2, ptr %5, align 4, !tbaa !36
  br label %22

22:                                               ; preds = %21, %14
  br label %23

23:                                               ; preds = %22, %13
  %24 = load i32, ptr %5, align 4, !tbaa !36
  call void @llvm.lifetime.end.p0(i64 4, ptr %5) #3
  ret i32 %24
}