; Function Attrs: mustprogress nofree norecurse nosync nounwind willreturn memory(argmem: read) uwtable
define dso_local noundef range(i32 0, 3) i32 @_ZNK10cmPolicies9PolicyMap3GetENS_8PolicyIDE(ptr noundef nonnull readonly align 8 captures(none) dereferenceable(72) %0, i32 noundef %1) local_unnamed_addr #8 align 2 {
  %3 = mul nsw i32 %1, 3
  %4 = sext i32 %3 to i64
  %5 = lshr i64 %4, 6
  %6 = getelementptr inbounds nuw [9 x i64], ptr %0, i64 0, i64 %5
  %7 = load i64, ptr %6, align 8, !tbaa !17
  %8 = and i64 %4, 63
  %9 = shl nuw i64 1, %8
  %10 = and i64 %7, %9
  %.not = icmp eq i64 %10, 0
  br i1 %.not, label %11, label %20

11:                                               ; preds = %2
  %12 = add nsw i32 %3, 2
  %13 = sext i32 %12 to i64
  %14 = lshr i64 %13, 6
  %15 = getelementptr inbounds nuw [9 x i64], ptr %0, i64 0, i64 %14
  %16 = load i64, ptr %15, align 8, !tbaa !17
  %17 = and i64 %13, 63
  %18 = shl nuw i64 1, %17
  %19 = and i64 %16, %18
  %.not3 = icmp eq i64 %19, 0
  %spec.select = select i1 %.not3, i32 1, i32 2
  br label %20

20:                                               ; preds = %11, %2
  %.0 = phi i32 [ 0, %2 ], [ %spec.select, %11 ]
  ret i32 %.0
}